---
triple:          'arm64-apple-darwin'
binary-path:     '/Applications/Shivay@btech/C++ Tutorial/Projects/Backing System/output/main'
relocations:
  - { offsetInCU: 0x49B3, offset: 0x49B3, size: 0x8, addend: 0x0, symName: __ZNSt3__124__put_character_sequenceB8ue170006IcNS_11char_traitsIcEEEERNS_13basic_ostreamIT_T0_EES7_PKS4_m, symObjAddr: 0x2EAC, symBinAddr: 0x100005EB0, symSize: 0x1F4 }
  - { offsetInCU: 0x67FF, offset: 0x67FF, size: 0x8, addend: 0x0, symName: __ZNSt3__1lsB8ue170006INS_11char_traitsIcEEEERNS_13basic_ostreamIcT_EES6_PKc, symObjAddr: 0x3C4, symBinAddr: 0x1000033C8, symSize: 0x48 }
  - { offsetInCU: 0x6845, offset: 0x6845, size: 0x8, addend: 0x0, symName: __ZNSt3__1rsB8ue170006IcNS_11char_traitsIcEENS_9allocatorIcEEEERNS_13basic_istreamIT_T0_EES9_RNS_12basic_stringIS6_S7_T1_EE, symObjAddr: 0x438, symBinAddr: 0x10000343C, symSize: 0x314 }
  - { offsetInCU: 0x6912, offset: 0x6912, size: 0x8, addend: 0x0, symName: __ZNSt3__14endlB8ue170006IcNS_11char_traitsIcEEEERNS_13basic_ostreamIT_T0_EES7_, symObjAddr: 0xE24, symBinAddr: 0x100003E28, symSize: 0x58 }
  - { offsetInCU: 0x6952, offset: 0x6952, size: 0x8, addend: 0x0, symName: __ZNSt3__112__to_addressB8ue170006I7AccountEEPT_S3_, symObjAddr: 0x11AC, symBinAddr: 0x1000041B0, symSize: 0x14 }
  - { offsetInCU: 0x6987, offset: 0x6987, size: 0x8, addend: 0x0, symName: __ZNSt3__13maxB8ue170006ImEERKT_S3_S3_, symObjAddr: 0x1674, symBinAddr: 0x100004678, symSize: 0x2C }
  - { offsetInCU: 0x69CA, offset: 0x69CA, size: 0x8, addend: 0x0, symName: __ZNSt3__13minB8ue170006ImEERKT_S3_S3_, symObjAddr: 0x16A0, symBinAddr: 0x1000046A4, symSize: 0x2C }
  - { offsetInCU: 0x6C0E, offset: 0x6C0E, size: 0x8, addend: 0x0, symName: __ZNSt3__13minB8ue170006ImNS_6__lessIvvEEEERKT_S5_S5_T0_, symObjAddr: 0x172C, symBinAddr: 0x100004730, symSize: 0x54 }
  - { offsetInCU: 0x6CAD, offset: 0x6CAD, size: 0x8, addend: 0x0, symName: __ZNSt3__120__throw_length_errorB8ue170006EPKc, symObjAddr: 0x180C, symBinAddr: 0x100004810, symSize: 0x64 }
  - { offsetInCU: 0x6CD7, offset: 0x6CD7, size: 0x8, addend: 0x0, symName: __ZNSt3__13maxB8ue170006ImNS_6__lessIvvEEEERKT_S5_S5_T0_, symObjAddr: 0x1950, symBinAddr: 0x100004954, symSize: 0x54 }
  - { offsetInCU: 0x6D31, offset: 0x6D31, size: 0x8, addend: 0x0, symName: __ZNSt3__119__allocate_at_leastB8ue170006INS_9allocatorI7AccountEEEENS_19__allocation_resultINS_16allocator_traitsIT_E7pointerEEERS6_m, symObjAddr: 0x1AC0, symBinAddr: 0x100004AC4, symSize: 0x40 }
  - { offsetInCU: 0x6D74, offset: 0x6D74, size: 0x8, addend: 0x0, symName: __ZNSt3__130__libcpp_is_constant_evaluatedB8ue170006Ev, symObjAddr: 0x1C78, symBinAddr: 0x100004C7C, symSize: 0xC }
  - { offsetInCU: 0x6D91, offset: 0x6D91, size: 0x8, addend: 0x0, symName: __ZNSt3__117__libcpp_allocateB8ue170006Emm, symObjAddr: 0x1C84, symBinAddr: 0x100004C88, symSize: 0x28 }
  - { offsetInCU: 0x6DCE, offset: 0x6DCE, size: 0x8, addend: 0x0, symName: __ZNSt3__121__libcpp_operator_newB8ue170006IJmEEEPvDpT_, symObjAddr: 0x1CAC, symBinAddr: 0x100004CB0, symSize: 0x24 }
  - { offsetInCU: 0x6E07, offset: 0x6E07, size: 0x8, addend: 0x0, symName: __ZNSt3__142__uninitialized_allocator_move_if_noexceptB8ue170006INS_9allocatorI7AccountEENS_16reverse_iteratorIPS2_EES6_S6_EET2_RT_T0_T1_S7_, symObjAddr: 0x1E08, symBinAddr: 0x100004E0C, symSize: 0x134 }
  - { offsetInCU: 0x6EA7, offset: 0x6EA7, size: 0x8, addend: 0x0, symName: __ZNSt3__14swapB8ue170006IP7AccountEEvRT_S4_, symObjAddr: 0x1F88, symBinAddr: 0x100004F8C, symSize: 0x3C }
  - { offsetInCU: 0x6EF8, offset: 0x6EF8, size: 0x8, addend: 0x0, symName: __ZNSt3__122__make_exception_guardB8ue170006INS_29_AllocatorDestroyRangeReverseINS_9allocatorI7AccountEENS_16reverse_iteratorIPS3_EEEEEENS_28__exception_guard_exceptionsIT_EESA_, symObjAddr: 0x20D4, symBinAddr: 0x1000050D8, symSize: 0x4C }
  - { offsetInCU: 0x6F2E, offset: 0x6F2E, size: 0x8, addend: 0x0, symName: __ZNSt3__1neB8ue170006IP7AccountS2_EEbRKNS_16reverse_iteratorIT_EERKNS3_IT0_EE, symObjAddr: 0x2164, symBinAddr: 0x100005168, symSize: 0x48 }
  - { offsetInCU: 0x6F7A, offset: 0x6F7A, size: 0x8, addend: 0x0, symName: __ZNSt3__112__to_addressB8ue170006INS_16reverse_iteratorIP7AccountEEvEEu7__decayIDTclsr19__to_address_helperIT_EE6__callclsr3stdE7declvalIRKS5_EEEEES7_, symObjAddr: 0x21AC, symBinAddr: 0x1000051B0, symSize: 0x24 }
  - { offsetInCU: 0x6FD9, offset: 0x6FD9, size: 0x8, addend: 0x0, symName: __ZNSt3__119__allocator_destroyB8ue170006INS_9allocatorI7AccountEENS_16reverse_iteratorINS4_IPS2_EEEES7_EEvRT_T0_T1_, symObjAddr: 0x2468, symBinAddr: 0x10000546C, symSize: 0x70 }
  - { offsetInCU: 0x703E, offset: 0x703E, size: 0x8, addend: 0x0, symName: __ZNSt3__1neB8ue170006INS_16reverse_iteratorIP7AccountEES4_EEbRKNS1_IT_EERKNS1_IT0_EE, symObjAddr: 0x2514, symBinAddr: 0x100005518, symSize: 0x60 }
  - { offsetInCU: 0x708A, offset: 0x708A, size: 0x8, addend: 0x0, symName: __ZNSt3__112__to_addressB8ue170006INS_16reverse_iteratorINS1_IP7AccountEEEEvEEu7__decayIDTclsr19__to_address_helperIT_EE6__callclsr3stdE7declvalIRKS6_EEEEES8_, symObjAddr: 0x25A0, symBinAddr: 0x1000055A4, symSize: 0x24 }
  - { offsetInCU: 0x70E9, offset: 0x70E9, size: 0x8, addend: 0x0, symName: __ZNSt3__119__libcpp_deallocateB8ue170006EPvmm, symObjAddr: 0x29A8, symBinAddr: 0x1000059AC, symSize: 0x30 }
  - { offsetInCU: 0x7131, offset: 0x7131, size: 0x8, addend: 0x0, symName: __ZNSt3__127__do_deallocate_handle_sizeB8ue170006IJEEEvPvmDpT_, symObjAddr: 0x29D8, symBinAddr: 0x1000059DC, symSize: 0x28 }
  - { offsetInCU: 0x716F, offset: 0x716F, size: 0x8, addend: 0x0, symName: __ZNSt3__124__libcpp_operator_deleteB8ue170006IJPvEEEvDpT_, symObjAddr: 0x2A00, symBinAddr: 0x100005A04, symSize: 0x24 }
  - { offsetInCU: 0x71A4, offset: 0x71A4, size: 0x8, addend: 0x0, symName: __ZNSt3__19use_facetB8ue170006INS_5ctypeIcEEEERKT_RKNS_6localeE, symObjAddr: 0x2AFC, symBinAddr: 0x100005B00, symSize: 0x2C }
  - { offsetInCU: 0x7582, offset: 0x7582, size: 0x8, addend: 0x0, symName: __ZNSt3__1lsB8ue170006IcNS_11char_traitsIcEENS_9allocatorIcEEEERNS_13basic_ostreamIT_T0_EES9_RKNS_12basic_stringIS6_S7_T1_EE, symObjAddr: 0x2E24, symBinAddr: 0x100005E28, symSize: 0x4C }
  - { offsetInCU: 0x75DA, offset: 0x75DA, size: 0x8, addend: 0x0, symName: __ZNSt3__116__pad_and_outputB8ue170006IcNS_11char_traitsIcEEEENS_19ostreambuf_iteratorIT_T0_EES6_PKS4_S8_S8_RNS_8ios_baseES4_, symObjAddr: 0x3138, symBinAddr: 0x10000613C, symSize: 0x248 }
  - { offsetInCU: 0x76A9, offset: 0x76A9, size: 0x8, addend: 0x0, symName: __ZNSt3__112__to_addressB8ue170006IKcEEPT_S3_, symObjAddr: 0x3788, symBinAddr: 0x10000678C, symSize: 0x14 }
  - { offsetInCU: 0x7711, offset: 0x7711, size: 0x8, addend: 0x0, symName: __ZNSt3__118__constexpr_strlenB8ue170006EPKc, symObjAddr: 0x3FF8, symBinAddr: 0x100006FFC, symSize: 0x24 }
  - { offsetInCU: 0x80AA, offset: 0x80AA, size: 0x8, addend: 0x0, symName: __ZSt28__throw_bad_array_new_lengthB8ue170006v, symObjAddr: 0x1C44, symBinAddr: 0x100004C48, symSize: 0x34 }
  - { offsetInCU: 0x8615, offset: 0x8615, size: 0x8, addend: 0x0, symName: __ZNSt3__16vectorI7AccountNS_9allocatorIS1_EEE26__swap_out_circular_bufferERNS_14__split_bufferIS1_RS3_EE, symObjAddr: 0x1468, symBinAddr: 0x10000446C, symSize: 0x110 }
  - { offsetInCU: 0xAA50, offset: 0xAA50, size: 0x8, addend: 0x0, symName: _main, symObjAddr: 0x0, symBinAddr: 0x100003004, symSize: 0x380 }
  - { offsetInCU: 0xABF8, offset: 0xABF8, size: 0x8, addend: 0x0, symName: __ZN4BankC1Ev, symObjAddr: 0x398, symBinAddr: 0x10000339C, symSize: 0x2C }
  - { offsetInCU: 0xAC21, offset: 0xAC21, size: 0x8, addend: 0x0, symName: __ZNSt3__112basic_stringIcNS_11char_traitsIcEENS_9allocatorIcEEEC1B8ue170006Ev, symObjAddr: 0x40C, symBinAddr: 0x100003410, symSize: 0x2C }
  - { offsetInCU: 0xAC4A, offset: 0xAC4A, size: 0x8, addend: 0x0, symName: __ZN4Bank13createAccountENSt3__112basic_stringIcNS0_11char_traitsIcEENS0_9allocatorIcEEEEd, symObjAddr: 0x74C, symBinAddr: 0x100003750, symSize: 0x118 }
  - { offsetInCU: 0xAC9A, offset: 0xAC9A, size: 0x8, addend: 0x0, symName: __ZN4Bank7depositEid, symObjAddr: 0x870, symBinAddr: 0x100003874, symSize: 0x7C }
  - { offsetInCU: 0xACE9, offset: 0xACE9, size: 0x8, addend: 0x0, symName: __ZN4Bank8withdrawEid, symObjAddr: 0x8EC, symBinAddr: 0x1000038F0, symSize: 0x7C }
  - { offsetInCU: 0xAD38, offset: 0xAD38, size: 0x8, addend: 0x0, symName: __ZN4Bank12checkBalanceEi, symObjAddr: 0x968, symBinAddr: 0x10000396C, symSize: 0xA0 }
  - { offsetInCU: 0xAD79, offset: 0xAD79, size: 0x8, addend: 0x0, symName: __ZN4Bank15listAllAccountsEv, symObjAddr: 0xA08, symBinAddr: 0x100003A0C, symSize: 0x16C }
  - { offsetInCU: 0xADB2, offset: 0xADB2, size: 0x8, addend: 0x0, symName: __ZN4BankD1Ev, symObjAddr: 0xB74, symBinAddr: 0x100003B78, symSize: 0x2C }
  - { offsetInCU: 0xADDD, offset: 0xADDD, size: 0x8, addend: 0x0, symName: __ZN4BankC2Ev, symObjAddr: 0xBA0, symBinAddr: 0x100003BA4, symSize: 0x34 }
  - { offsetInCU: 0xAE06, offset: 0xAE06, size: 0x8, addend: 0x0, symName: __ZNSt3__16vectorI7AccountNS_9allocatorIS1_EEEC1B8ue170006Ev, symObjAddr: 0xBD4, symBinAddr: 0x100003BD8, symSize: 0x2C }
  - { offsetInCU: 0xAE2F, offset: 0xAE2F, size: 0x8, addend: 0x0, symName: __ZNSt3__16vectorI7AccountNS_9allocatorIS1_EEEC2B8ue170006Ev, symObjAddr: 0xC00, symBinAddr: 0x100003C04, symSize: 0x44 }
  - { offsetInCU: 0xAE62, offset: 0xAE62, size: 0x8, addend: 0x0, symName: __ZNSt3__117__compressed_pairIP7AccountNS_9allocatorIS1_EEEC1B8ue170006IDnNS_18__default_init_tagEEEOT_OT0_, symObjAddr: 0xC44, symBinAddr: 0x100003C48, symSize: 0x3C }
  - { offsetInCU: 0xAEB9, offset: 0xAEB9, size: 0x8, addend: 0x0, symName: __ZNSt3__117__compressed_pairIP7AccountNS_9allocatorIS1_EEEC2B8ue170006IDnNS_18__default_init_tagEEEOT_OT0_, symObjAddr: 0xC80, symBinAddr: 0x100003C84, symSize: 0x40 }
  - { offsetInCU: 0xAF10, offset: 0xAF10, size: 0x8, addend: 0x0, symName: __ZNSt3__122__compressed_pair_elemIP7AccountLi0ELb0EEC2B8ue170006IDnvEEOT_, symObjAddr: 0xCC0, symBinAddr: 0x100003CC4, symSize: 0x1C }
  - { offsetInCU: 0xAF51, offset: 0xAF51, size: 0x8, addend: 0x0, symName: __ZNSt3__122__compressed_pair_elemINS_9allocatorI7AccountEELi1ELb1EEC2B8ue170006ENS_18__default_init_tagE, symObjAddr: 0xCDC, symBinAddr: 0x100003CE0, symSize: 0x2C }
  - { offsetInCU: 0xAF85, offset: 0xAF85, size: 0x8, addend: 0x0, symName: __ZNSt3__19allocatorI7AccountEC2B8ue170006Ev, symObjAddr: 0xD08, symBinAddr: 0x100003D0C, symSize: 0x2C }
  - { offsetInCU: 0xAFAE, offset: 0xAFAE, size: 0x8, addend: 0x0, symName: __ZNSt3__116__non_trivial_ifILb1ENS_9allocatorI7AccountEEEC2B8ue170006Ev, symObjAddr: 0xD34, symBinAddr: 0x100003D38, symSize: 0x14 }
  - { offsetInCU: 0xAFD7, offset: 0xAFD7, size: 0x8, addend: 0x0, symName: __ZN7AccountC1EiNSt3__112basic_stringIcNS0_11char_traitsIcEENS0_9allocatorIcEEEEd, symObjAddr: 0xD48, symBinAddr: 0x100003D4C, symSize: 0x44 }
  - { offsetInCU: 0xB02A, offset: 0xB02A, size: 0x8, addend: 0x0, symName: __ZNSt3__16vectorI7AccountNS_9allocatorIS1_EEE9push_backB8ue170006ERKS1_, symObjAddr: 0xD8C, symBinAddr: 0x100003D90, symSize: 0x6C }
  - { offsetInCU: 0xB060, offset: 0xB060, size: 0x8, addend: 0x0, symName: __ZNSt3__113basic_ostreamIcNS_11char_traitsIcEEElsB8ue170006EPFRS3_S4_E, symObjAddr: 0xDF8, symBinAddr: 0x100003DFC, symSize: 0x2C }
  - { offsetInCU: 0xB093, offset: 0xB093, size: 0x8, addend: 0x0, symName: __ZN7AccountD1Ev, symObjAddr: 0xE7C, symBinAddr: 0x100003E80, symSize: 0x2C }
  - { offsetInCU: 0xB0BE, offset: 0xB0BE, size: 0x8, addend: 0x0, symName: __ZN7AccountC2EiNSt3__112basic_stringIcNS0_11char_traitsIcEENS0_9allocatorIcEEEEd, symObjAddr: 0xEA8, symBinAddr: 0x100003EAC, symSize: 0x94 }
  - { offsetInCU: 0xB112, offset: 0xB112, size: 0x8, addend: 0x0, symName: __ZNSt3__16vectorI7AccountNS_9allocatorIS1_EEE9__end_capB8ue170006Ev, symObjAddr: 0xF3C, symBinAddr: 0x100003F40, symSize: 0x28 }
  - { offsetInCU: 0xB137, offset: 0xB137, size: 0x8, addend: 0x0, symName: __ZNSt3__16vectorI7AccountNS_9allocatorIS1_EEE22__construct_one_at_endB8ue170006IJRKS1_EEEvDpOT_, symObjAddr: 0xF64, symBinAddr: 0x100003F68, symSize: 0x98 }
  - { offsetInCU: 0xB184, offset: 0xB184, size: 0x8, addend: 0x0, symName: __ZNSt3__16vectorI7AccountNS_9allocatorIS1_EEE21__push_back_slow_pathIRKS1_EEvOT_, symObjAddr: 0xFFC, symBinAddr: 0x100004000, symSize: 0xE0 }
  - { offsetInCU: 0xB1E1, offset: 0xB1E1, size: 0x8, addend: 0x0, symName: __ZNSt3__117__compressed_pairIP7AccountNS_9allocatorIS1_EEE5firstB8ue170006Ev, symObjAddr: 0x10DC, symBinAddr: 0x1000040E0, symSize: 0x24 }
  - { offsetInCU: 0xB206, offset: 0xB206, size: 0x8, addend: 0x0, symName: __ZNSt3__122__compressed_pair_elemIP7AccountLi0ELb0EE5__getB8ue170006Ev, symObjAddr: 0x1100, symBinAddr: 0x100004104, symSize: 0x14 }
  - { offsetInCU: 0xB244, offset: 0xB244, size: 0x8, addend: 0x0, symName: __ZNSt3__16vectorI7AccountNS_9allocatorIS1_EEE21_ConstructTransactionC1B8ue170006ERS4_m, symObjAddr: 0x1114, symBinAddr: 0x100004118, symSize: 0x3C }
  - { offsetInCU: 0xB28B, offset: 0xB28B, size: 0x8, addend: 0x0, symName: __ZNSt3__116allocator_traitsINS_9allocatorI7AccountEEE9constructB8ue170006IS2_JRKS2_EvEEvRS3_PT_DpOT0_, symObjAddr: 0x1150, symBinAddr: 0x100004154, symSize: 0x34 }
  - { offsetInCU: 0xB2E2, offset: 0xB2E2, size: 0x8, addend: 0x0, symName: __ZNSt3__16vectorI7AccountNS_9allocatorIS1_EEE7__allocB8ue170006Ev, symObjAddr: 0x1184, symBinAddr: 0x100004188, symSize: 0x28 }
  - { offsetInCU: 0xB307, offset: 0xB307, size: 0x8, addend: 0x0, symName: __ZNSt3__16vectorI7AccountNS_9allocatorIS1_EEE21_ConstructTransactionD1B8ue170006Ev, symObjAddr: 0x11C0, symBinAddr: 0x1000041C4, symSize: 0x2C }
  - { offsetInCU: 0xB330, offset: 0xB330, size: 0x8, addend: 0x0, symName: __ZNSt3__16vectorI7AccountNS_9allocatorIS1_EEE21_ConstructTransactionC2B8ue170006ERS4_m, symObjAddr: 0x11EC, symBinAddr: 0x1000041F0, symSize: 0x4C }
  - { offsetInCU: 0xB377, offset: 0xB377, size: 0x8, addend: 0x0, symName: __ZNSt3__19allocatorI7AccountE9constructB8ue170006IS1_JRKS1_EEEvPT_DpOT0_, symObjAddr: 0x1238, symBinAddr: 0x10000423C, symSize: 0x30 }
  - { offsetInCU: 0xB3CC, offset: 0xB3CC, size: 0x8, addend: 0x0, symName: __ZN7AccountC1ERKS_, symObjAddr: 0x1268, symBinAddr: 0x10000426C, symSize: 0x34 }
  - { offsetInCU: 0xB400, offset: 0xB400, size: 0x8, addend: 0x0, symName: __ZN7AccountC2ERKS_, symObjAddr: 0x129C, symBinAddr: 0x1000042A0, symSize: 0x54 }
  - { offsetInCU: 0xB434, offset: 0xB434, size: 0x8, addend: 0x0, symName: __ZNSt3__117__compressed_pairIP7AccountNS_9allocatorIS1_EEE6secondB8ue170006Ev, symObjAddr: 0x12F0, symBinAddr: 0x1000042F4, symSize: 0x24 }
  - { offsetInCU: 0xB459, offset: 0xB459, size: 0x8, addend: 0x0, symName: __ZNSt3__122__compressed_pair_elemINS_9allocatorI7AccountEELi1ELb1EE5__getB8ue170006Ev, symObjAddr: 0x1314, symBinAddr: 0x100004318, symSize: 0x14 }
  - { offsetInCU: 0xB47E, offset: 0xB47E, size: 0x8, addend: 0x0, symName: __ZNSt3__16vectorI7AccountNS_9allocatorIS1_EEE21_ConstructTransactionD2B8ue170006Ev, symObjAddr: 0x1328, symBinAddr: 0x10000432C, symSize: 0x20 }
  - { offsetInCU: 0xB4A6, offset: 0xB4A6, size: 0x8, addend: 0x0, symName: __ZNKSt3__16vectorI7AccountNS_9allocatorIS1_EEE11__recommendB8ue170006Em, symObjAddr: 0x1348, symBinAddr: 0x10000434C, symSize: 0xB4 }
  - { offsetInCU: 0xB4FA, offset: 0xB4FA, size: 0x8, addend: 0x0, symName: __ZNKSt3__16vectorI7AccountNS_9allocatorIS1_EEE4sizeB8ue170006Ev, symObjAddr: 0x13FC, symBinAddr: 0x100004400, symSize: 0x28 }
  - { offsetInCU: 0xB51F, offset: 0xB51F, size: 0x8, addend: 0x0, symName: __ZNSt3__114__split_bufferI7AccountRNS_9allocatorIS1_EEEC1EmmS4_, symObjAddr: 0x1424, symBinAddr: 0x100004428, symSize: 0x44 }
  - { offsetInCU: 0xB574, offset: 0xB574, size: 0x8, addend: 0x0, symName: __ZNSt3__114__split_bufferI7AccountRNS_9allocatorIS1_EEED1Ev, symObjAddr: 0x1578, symBinAddr: 0x10000457C, symSize: 0x2C }
  - { offsetInCU: 0xB59E, offset: 0xB59E, size: 0x8, addend: 0x0, symName: __ZNKSt3__16vectorI7AccountNS_9allocatorIS1_EEE8max_sizeEv, symObjAddr: 0x15A4, symBinAddr: 0x1000045A8, symSize: 0x74 }
  - { offsetInCU: 0xB5C5, offset: 0xB5C5, size: 0x8, addend: 0x0, symName: __ZNKSt3__16vectorI7AccountNS_9allocatorIS1_EEE20__throw_length_errorB8ue170006Ev, symObjAddr: 0x1618, symBinAddr: 0x10000461C, symSize: 0x1C }
  - { offsetInCU: 0xB5EA, offset: 0xB5EA, size: 0x8, addend: 0x0, symName: __ZNKSt3__16vectorI7AccountNS_9allocatorIS1_EEE8capacityB8ue170006Ev, symObjAddr: 0x1634, symBinAddr: 0x100004638, symSize: 0x40 }
  - { offsetInCU: 0xB619, offset: 0xB619, size: 0x8, addend: 0x0, symName: __ZNSt3__116allocator_traitsINS_9allocatorI7AccountEEE8max_sizeB8ue170006IS3_vEEmRKS3_, symObjAddr: 0x16CC, symBinAddr: 0x1000046D0, symSize: 0x24 }
  - { offsetInCU: 0xB647, offset: 0xB647, size: 0x8, addend: 0x0, symName: __ZNKSt3__16vectorI7AccountNS_9allocatorIS1_EEE7__allocB8ue170006Ev, symObjAddr: 0x16F0, symBinAddr: 0x1000046F4, symSize: 0x28 }
  - { offsetInCU: 0xB66C, offset: 0xB66C, size: 0x8, addend: 0x0, symName: __ZNSt3__114numeric_limitsIlE3maxB8ue170006Ev, symObjAddr: 0x1718, symBinAddr: 0x10000471C, symSize: 0x14 }
  - { offsetInCU: 0xB694, offset: 0xB694, size: 0x8, addend: 0x0, symName: __ZNKSt3__16__lessIvvEclB8ue170006ImmEEbRKT_RKT0_, symObjAddr: 0x1780, symBinAddr: 0x100004784, symSize: 0x34 }
  - { offsetInCU: 0xB6E7, offset: 0xB6E7, size: 0x8, addend: 0x0, symName: __ZNKSt3__19allocatorI7AccountE8max_sizeB8ue170006Ev, symObjAddr: 0x17B4, symBinAddr: 0x1000047B8, symSize: 0x18 }
  - { offsetInCU: 0xB70C, offset: 0xB70C, size: 0x8, addend: 0x0, symName: __ZNKSt3__117__compressed_pairIP7AccountNS_9allocatorIS1_EEE6secondB8ue170006Ev, symObjAddr: 0x17CC, symBinAddr: 0x1000047D0, symSize: 0x24 }
  - { offsetInCU: 0xB731, offset: 0xB731, size: 0x8, addend: 0x0, symName: __ZNKSt3__122__compressed_pair_elemINS_9allocatorI7AccountEELi1ELb1EE5__getB8ue170006Ev, symObjAddr: 0x17F0, symBinAddr: 0x1000047F4, symSize: 0x14 }
  - { offsetInCU: 0xB756, offset: 0xB756, size: 0x8, addend: 0x0, symName: __ZNSt3__123__libcpp_numeric_limitsIlLb1EE3maxB8ue170006Ev, symObjAddr: 0x1804, symBinAddr: 0x100004808, symSize: 0x8 }
  - { offsetInCU: 0xB76A, offset: 0xB76A, size: 0x8, addend: 0x0, symName: __ZNSt12length_errorC1B8ue170006EPKc, symObjAddr: 0x1870, symBinAddr: 0x100004874, symSize: 0x34 }
  - { offsetInCU: 0xB7A1, offset: 0xB7A1, size: 0x8, addend: 0x0, symName: __ZNSt12length_errorC2B8ue170006EPKc, symObjAddr: 0x18A4, symBinAddr: 0x1000048A8, symSize: 0x4C }
  - { offsetInCU: 0xB7D8, offset: 0xB7D8, size: 0x8, addend: 0x0, symName: __ZNKSt3__16vectorI7AccountNS_9allocatorIS1_EEE9__end_capB8ue170006Ev, symObjAddr: 0x18F0, symBinAddr: 0x1000048F4, symSize: 0x28 }
  - { offsetInCU: 0xB7FD, offset: 0xB7FD, size: 0x8, addend: 0x0, symName: __ZNKSt3__117__compressed_pairIP7AccountNS_9allocatorIS1_EEE5firstB8ue170006Ev, symObjAddr: 0x1918, symBinAddr: 0x10000491C, symSize: 0x24 }
  - { offsetInCU: 0xB822, offset: 0xB822, size: 0x8, addend: 0x0, symName: __ZNKSt3__122__compressed_pair_elemIP7AccountLi0ELb0EE5__getB8ue170006Ev, symObjAddr: 0x193C, symBinAddr: 0x100004940, symSize: 0x14 }
  - { offsetInCU: 0xB847, offset: 0xB847, size: 0x8, addend: 0x0, symName: __ZNSt3__114__split_bufferI7AccountRNS_9allocatorIS1_EEEC2EmmS4_, symObjAddr: 0x19A4, symBinAddr: 0x1000049A8, symSize: 0xE0 }
  - { offsetInCU: 0xB8BA, offset: 0xB8BA, size: 0x8, addend: 0x0, symName: __ZNSt3__117__compressed_pairIP7AccountRNS_9allocatorIS1_EEEC1B8ue170006IDnS5_EEOT_OT0_, symObjAddr: 0x1A84, symBinAddr: 0x100004A88, symSize: 0x3C }
  - { offsetInCU: 0xB911, offset: 0xB911, size: 0x8, addend: 0x0, symName: __ZNSt3__114__split_bufferI7AccountRNS_9allocatorIS1_EEE7__allocB8ue170006Ev, symObjAddr: 0x1B00, symBinAddr: 0x100004B04, symSize: 0x28 }
  - { offsetInCU: 0xB936, offset: 0xB936, size: 0x8, addend: 0x0, symName: __ZNSt3__114__split_bufferI7AccountRNS_9allocatorIS1_EEE9__end_capB8ue170006Ev, symObjAddr: 0x1B28, symBinAddr: 0x100004B2C, symSize: 0x28 }
  - { offsetInCU: 0xB95B, offset: 0xB95B, size: 0x8, addend: 0x0, symName: __ZNSt3__117__compressed_pairIP7AccountRNS_9allocatorIS1_EEEC2B8ue170006IDnS5_EEOT_OT0_, symObjAddr: 0x1B50, symBinAddr: 0x100004B54, symSize: 0x48 }
  - { offsetInCU: 0xB9B2, offset: 0xB9B2, size: 0x8, addend: 0x0, symName: __ZNSt3__122__compressed_pair_elemIRNS_9allocatorI7AccountEELi1ELb0EEC2B8ue170006IS4_vEEOT_, symObjAddr: 0x1B98, symBinAddr: 0x100004B9C, symSize: 0x20 }
  - { offsetInCU: 0xB9F3, offset: 0xB9F3, size: 0x8, addend: 0x0, symName: __ZNSt3__19allocatorI7AccountE8allocateB8ue170006Em, symObjAddr: 0x1BB8, symBinAddr: 0x100004BBC, symSize: 0x8C }
  - { offsetInCU: 0xBA26, offset: 0xBA26, size: 0x8, addend: 0x0, symName: __ZNSt3__117__compressed_pairIP7AccountRNS_9allocatorIS1_EEE6secondB8ue170006Ev, symObjAddr: 0x1CD0, symBinAddr: 0x100004CD4, symSize: 0x28 }
  - { offsetInCU: 0xBA4B, offset: 0xBA4B, size: 0x8, addend: 0x0, symName: __ZNSt3__122__compressed_pair_elemIRNS_9allocatorI7AccountEELi1ELb0EE5__getB8ue170006Ev, symObjAddr: 0x1CF8, symBinAddr: 0x100004CFC, symSize: 0x18 }
  - { offsetInCU: 0xBA70, offset: 0xBA70, size: 0x8, addend: 0x0, symName: __ZNSt3__117__compressed_pairIP7AccountRNS_9allocatorIS1_EEE5firstB8ue170006Ev, symObjAddr: 0x1D10, symBinAddr: 0x100004D14, symSize: 0x24 }
  - { offsetInCU: 0xBA95, offset: 0xBA95, size: 0x8, addend: 0x0, symName: __ZNKSt3__16vectorI7AccountNS_9allocatorIS1_EEE17__annotate_deleteB8ue170006Ev, symObjAddr: 0x1D34, symBinAddr: 0x100004D38, symSize: 0xD4 }
  - { offsetInCU: 0xBABA, offset: 0xBABA, size: 0x8, addend: 0x0, symName: __ZNSt3__116reverse_iteratorIP7AccountEC1B8ue170006ES2_, symObjAddr: 0x1F3C, symBinAddr: 0x100004F40, symSize: 0x34 }
  - { offsetInCU: 0xBAF1, offset: 0xBAF1, size: 0x8, addend: 0x0, symName: __ZNKSt3__116reverse_iteratorIP7AccountE4baseB8ue170006Ev, symObjAddr: 0x1F70, symBinAddr: 0x100004F74, symSize: 0x18 }
  - { offsetInCU: 0xBB16, offset: 0xBB16, size: 0x8, addend: 0x0, symName: __ZNKSt3__16vectorI7AccountNS_9allocatorIS1_EEE14__annotate_newB8ue170006Em, symObjAddr: 0x1FC4, symBinAddr: 0x100004FC8, symSize: 0xC8 }
  - { offsetInCU: 0xBB4A, offset: 0xBB4A, size: 0x8, addend: 0x0, symName: __ZNKSt3__16vectorI7AccountNS_9allocatorIS1_EEE31__annotate_contiguous_containerB8ue170006EPKvS6_S6_S6_, symObjAddr: 0x208C, symBinAddr: 0x100005090, symSize: 0x20 }
  - { offsetInCU: 0xBB9F, offset: 0xBB9F, size: 0x8, addend: 0x0, symName: __ZNKSt3__16vectorI7AccountNS_9allocatorIS1_EEE4dataB8ue170006Ev, symObjAddr: 0x20AC, symBinAddr: 0x1000050B0, symSize: 0x28 }
  - { offsetInCU: 0xBBC4, offset: 0xBBC4, size: 0x8, addend: 0x0, symName: __ZNSt3__129_AllocatorDestroyRangeReverseINS_9allocatorI7AccountEENS_16reverse_iteratorIPS2_EEEC1B8ue170006ERS3_RS6_S9_, symObjAddr: 0x2120, symBinAddr: 0x100005124, symSize: 0x44 }
  - { offsetInCU: 0xBC1A, offset: 0xBC1A, size: 0x8, addend: 0x0, symName: __ZNKSt3__116reverse_iteratorIP7AccountEdeB8ue170006Ev, symObjAddr: 0x21D0, symBinAddr: 0x1000051D4, symSize: 0x28 }
  - { offsetInCU: 0xBC4D, offset: 0xBC4D, size: 0x8, addend: 0x0, symName: __ZNSt3__116reverse_iteratorIP7AccountEppB8ue170006Ev, symObjAddr: 0x21F8, symBinAddr: 0x1000051FC, symSize: 0x20 }
  - { offsetInCU: 0xBC72, offset: 0xBC72, size: 0x8, addend: 0x0, symName: __ZNSt3__128__exception_guard_exceptionsINS_29_AllocatorDestroyRangeReverseINS_9allocatorI7AccountEENS_16reverse_iteratorIPS3_EEEEE10__completeB8ue170006Ev, symObjAddr: 0x2218, symBinAddr: 0x10000521C, symSize: 0x1C }
  - { offsetInCU: 0xBC97, offset: 0xBC97, size: 0x8, addend: 0x0, symName: __ZNSt3__128__exception_guard_exceptionsINS_29_AllocatorDestroyRangeReverseINS_9allocatorI7AccountEENS_16reverse_iteratorIPS3_EEEEED1B8ue170006Ev, symObjAddr: 0x2234, symBinAddr: 0x100005238, symSize: 0x2C }
  - { offsetInCU: 0xBCC0, offset: 0xBCC0, size: 0x8, addend: 0x0, symName: __ZNSt3__128__exception_guard_exceptionsINS_29_AllocatorDestroyRangeReverseINS_9allocatorI7AccountEENS_16reverse_iteratorIPS3_EEEEEC1B8ue170006ES8_, symObjAddr: 0x2260, symBinAddr: 0x100005264, symSize: 0x34 }
  - { offsetInCU: 0xBCF8, offset: 0xBCF8, size: 0x8, addend: 0x0, symName: __ZNSt3__128__exception_guard_exceptionsINS_29_AllocatorDestroyRangeReverseINS_9allocatorI7AccountEENS_16reverse_iteratorIPS3_EEEEEC2B8ue170006ES8_, symObjAddr: 0x2294, symBinAddr: 0x100005298, symSize: 0x30 }
  - { offsetInCU: 0xBD30, offset: 0xBD30, size: 0x8, addend: 0x0, symName: __ZNSt3__129_AllocatorDestroyRangeReverseINS_9allocatorI7AccountEENS_16reverse_iteratorIPS2_EEEC2B8ue170006ERS3_RS6_S9_, symObjAddr: 0x22C4, symBinAddr: 0x1000052C8, symSize: 0x38 }
  - { offsetInCU: 0xBD8B, offset: 0xBD8B, size: 0x8, addend: 0x0, symName: __ZNSt3__119__to_address_helperINS_16reverse_iteratorIP7AccountEEvE6__callB8ue170006ERKS4_, symObjAddr: 0x22FC, symBinAddr: 0x100005300, symSize: 0x4C }
  - { offsetInCU: 0xBDAE, offset: 0xBDAE, size: 0x8, addend: 0x0, symName: __ZNKSt3__116reverse_iteratorIP7AccountEptB8ue170006Ev, symObjAddr: 0x2348, symBinAddr: 0x10000534C, symSize: 0x24 }
  - { offsetInCU: 0xBDD3, offset: 0xBDD3, size: 0x8, addend: 0x0, symName: __ZNSt3__128__exception_guard_exceptionsINS_29_AllocatorDestroyRangeReverseINS_9allocatorI7AccountEENS_16reverse_iteratorIPS3_EEEEED2B8ue170006Ev, symObjAddr: 0x236C, symBinAddr: 0x100005370, symSize: 0x48 }
  - { offsetInCU: 0xBDFC, offset: 0xBDFC, size: 0x8, addend: 0x0, symName: __ZNKSt3__129_AllocatorDestroyRangeReverseINS_9allocatorI7AccountEENS_16reverse_iteratorIPS2_EEEclB8ue170006Ev, symObjAddr: 0x23B4, symBinAddr: 0x1000053B8, symSize: 0xB4 }
  - { offsetInCU: 0xBE22, offset: 0xBE22, size: 0x8, addend: 0x0, symName: __ZNSt3__116reverse_iteratorINS0_IP7AccountEEEC1B8ue170006ES3_, symObjAddr: 0x24D8, symBinAddr: 0x1000054DC, symSize: 0x3C }
  - { offsetInCU: 0xBE59, offset: 0xBE59, size: 0x8, addend: 0x0, symName: __ZNSt3__116allocator_traitsINS_9allocatorI7AccountEEE7destroyB8ue170006IS2_vEEvRS3_PT_, symObjAddr: 0x2574, symBinAddr: 0x100005578, symSize: 0x2C }
  - { offsetInCU: 0xBE96, offset: 0xBE96, size: 0x8, addend: 0x0, symName: __ZNSt3__116reverse_iteratorINS0_IP7AccountEEEppB8ue170006Ev, symObjAddr: 0x25C4, symBinAddr: 0x1000055C8, symSize: 0x30 }
  - { offsetInCU: 0xBEBB, offset: 0xBEBB, size: 0x8, addend: 0x0, symName: __ZNKSt3__116reverse_iteratorINS0_IP7AccountEEE4baseB8ue170006Ev, symObjAddr: 0x25F4, symBinAddr: 0x1000055F8, symSize: 0x24 }
  - { offsetInCU: 0xBEE0, offset: 0xBEE0, size: 0x8, addend: 0x0, symName: __ZNSt3__19allocatorI7AccountE7destroyB8ue170006EPS1_, symObjAddr: 0x2618, symBinAddr: 0x10000561C, symSize: 0x28 }
  - { offsetInCU: 0xBF18, offset: 0xBF18, size: 0x8, addend: 0x0, symName: __ZNSt3__119__to_address_helperINS_16reverse_iteratorINS1_IP7AccountEEEEvE6__callB8ue170006ERKS5_, symObjAddr: 0x2640, symBinAddr: 0x100005644, symSize: 0x4C }
  - { offsetInCU: 0xBF3B, offset: 0xBF3B, size: 0x8, addend: 0x0, symName: __ZNKSt3__116reverse_iteratorINS0_IP7AccountEEEptB8ue170006Ev, symObjAddr: 0x268C, symBinAddr: 0x100005690, symSize: 0x24 }
  - { offsetInCU: 0xBF60, offset: 0xBF60, size: 0x8, addend: 0x0, symName: __ZNKSt3__116reverse_iteratorINS0_IP7AccountEEEdeB8ue170006Ev, symObjAddr: 0x26B0, symBinAddr: 0x1000056B4, symSize: 0x34 }
  - { offsetInCU: 0xBF93, offset: 0xBF93, size: 0x8, addend: 0x0, symName: __ZNSt3__116reverse_iteratorIP7AccountEmmB8ue170006Ev, symObjAddr: 0x26E4, symBinAddr: 0x1000056E8, symSize: 0x20 }
  - { offsetInCU: 0xBFB8, offset: 0xBFB8, size: 0x8, addend: 0x0, symName: __ZNSt3__116reverse_iteratorINS0_IP7AccountEEEC2B8ue170006ES3_, symObjAddr: 0x2704, symBinAddr: 0x100005708, symSize: 0x2C }
  - { offsetInCU: 0xBFEF, offset: 0xBFEF, size: 0x8, addend: 0x0, symName: __ZNSt3__116reverse_iteratorIP7AccountEC2B8ue170006ES2_, symObjAddr: 0x2730, symBinAddr: 0x100005734, symSize: 0x28 }
  - { offsetInCU: 0xC026, offset: 0xC026, size: 0x8, addend: 0x0, symName: __ZNSt3__114__split_bufferI7AccountRNS_9allocatorIS1_EEED2Ev, symObjAddr: 0x2758, symBinAddr: 0x10000575C, symSize: 0x80 }
  - { offsetInCU: 0xC051, offset: 0xC051, size: 0x8, addend: 0x0, symName: __ZNSt3__114__split_bufferI7AccountRNS_9allocatorIS1_EEE5clearB8ue170006Ev, symObjAddr: 0x27D8, symBinAddr: 0x1000057DC, symSize: 0x28 }
  - { offsetInCU: 0xC076, offset: 0xC076, size: 0x8, addend: 0x0, symName: __ZNSt3__116allocator_traitsINS_9allocatorI7AccountEEE10deallocateB8ue170006ERS3_PS2_m, symObjAddr: 0x2800, symBinAddr: 0x100005804, symSize: 0x34 }
  - { offsetInCU: 0xC0B8, offset: 0xC0B8, size: 0x8, addend: 0x0, symName: __ZNKSt3__114__split_bufferI7AccountRNS_9allocatorIS1_EEE8capacityB8ue170006Ev, symObjAddr: 0x2834, symBinAddr: 0x100005838, symSize: 0x40 }
  - { offsetInCU: 0xC0DD, offset: 0xC0DD, size: 0x8, addend: 0x0, symName: __ZNSt3__114__split_bufferI7AccountRNS_9allocatorIS1_EEE17__destruct_at_endB8ue170006EPS1_, symObjAddr: 0x2874, symBinAddr: 0x100005878, symSize: 0x2C }
  - { offsetInCU: 0xC10F, offset: 0xC10F, size: 0x8, addend: 0x0, symName: __ZNSt3__114__split_bufferI7AccountRNS_9allocatorIS1_EEE17__destruct_at_endB8ue170006EPS1_NS_17integral_constantIbLb0EEE, symObjAddr: 0x28A0, symBinAddr: 0x1000058A4, symSize: 0x94 }
  - { offsetInCU: 0xC14F, offset: 0xC14F, size: 0x8, addend: 0x0, symName: __ZNSt3__19allocatorI7AccountE10deallocateB8ue170006EPS1_m, symObjAddr: 0x2934, symBinAddr: 0x100005938, symSize: 0x74 }
  - { offsetInCU: 0xC190, offset: 0xC190, size: 0x8, addend: 0x0, symName: __ZNKSt3__114__split_bufferI7AccountRNS_9allocatorIS1_EEE9__end_capB8ue170006Ev, symObjAddr: 0x2A24, symBinAddr: 0x100005A28, symSize: 0x28 }
  - { offsetInCU: 0xC1B5, offset: 0xC1B5, size: 0x8, addend: 0x0, symName: __ZNKSt3__117__compressed_pairIP7AccountRNS_9allocatorIS1_EEE5firstB8ue170006Ev, symObjAddr: 0x2A4C, symBinAddr: 0x100005A50, symSize: 0x24 }
  - { offsetInCU: 0xC1D9, offset: 0xC1D9, size: 0x8, addend: 0x0, symName: __ZNKSt3__19basic_iosIcNS_11char_traitsIcEEE5widenB8ue170006Ec, symObjAddr: 0x2A70, symBinAddr: 0x100005A74, symSize: 0x8C }
  - { offsetInCU: 0xC23C, offset: 0xC23C, size: 0x8, addend: 0x0, symName: __ZNKSt3__15ctypeIcE5widenB8ue170006Ec, symObjAddr: 0x2B28, symBinAddr: 0x100005B2C, symSize: 0x38 }
  - { offsetInCU: 0xC270, offset: 0xC270, size: 0x8, addend: 0x0, symName: __ZN7AccountD2Ev, symObjAddr: 0x2B60, symBinAddr: 0x100005B64, symSize: 0x30 }
  - { offsetInCU: 0xC29B, offset: 0xC29B, size: 0x8, addend: 0x0, symName: __ZN4Bank11findAccountEi, symObjAddr: 0x2B90, symBinAddr: 0x100005B94, symSize: 0xAC }
  - { offsetInCU: 0xC2EB, offset: 0xC2EB, size: 0x8, addend: 0x0, symName: __ZN7Account7depositEd, symObjAddr: 0x2C3C, symBinAddr: 0x100005C40, symSize: 0xA4 }
  - { offsetInCU: 0xC31E, offset: 0xC31E, size: 0x8, addend: 0x0, symName: __ZNSt3__16vectorI7AccountNS_9allocatorIS1_EEEixB8ue170006Em, symObjAddr: 0x2CE0, symBinAddr: 0x100005CE4, symSize: 0x2C }
  - { offsetInCU: 0xC354, offset: 0xC354, size: 0x8, addend: 0x0, symName: __ZN7Account16getAccountNumberEv, symObjAddr: 0x2D0C, symBinAddr: 0x100005D10, symSize: 0x18 }
  - { offsetInCU: 0xC379, offset: 0xC379, size: 0x8, addend: 0x0, symName: __ZN7Account8withdrawEd, symObjAddr: 0x2D24, symBinAddr: 0x100005D28, symSize: 0xE8 }
  - { offsetInCU: 0xC3AC, offset: 0xC3AC, size: 0x8, addend: 0x0, symName: __ZN7Account10getBalanceEv, symObjAddr: 0x2E0C, symBinAddr: 0x100005E10, symSize: 0x18 }
  - { offsetInCU: 0xC3D1, offset: 0xC3D1, size: 0x8, addend: 0x0, symName: __ZN7Account20getAccountHolderNameEv, symObjAddr: 0x2E70, symBinAddr: 0x100005E74, symSize: 0x3C }
  - { offsetInCU: 0xC3F6, offset: 0xC3F6, size: 0x8, addend: 0x0, symName: __ZNKSt3__112basic_stringIcNS_11char_traitsIcEENS_9allocatorIcEEE4dataB8ue170006Ev, symObjAddr: 0x30A0, symBinAddr: 0x1000060A4, symSize: 0x28 }
  - { offsetInCU: 0xC41B, offset: 0xC41B, size: 0x8, addend: 0x0, symName: __ZNKSt3__112basic_stringIcNS_11char_traitsIcEENS_9allocatorIcEEE4sizeB8ue170006Ev, symObjAddr: 0x30C8, symBinAddr: 0x1000060CC, symSize: 0x54 }
  - { offsetInCU: 0xC45E, offset: 0xC45E, size: 0x8, addend: 0x0, symName: __ZNKSt3__113basic_ostreamIcNS_11char_traitsIcEEE6sentrycvbB8ue170006Ev, symObjAddr: 0x311C, symBinAddr: 0x100006120, symSize: 0x1C }
  - { offsetInCU: 0xC483, offset: 0xC483, size: 0x8, addend: 0x0, symName: __ZNSt3__119ostreambuf_iteratorIcNS_11char_traitsIcEEEC1B8ue170006ERNS_13basic_ostreamIcS2_EE, symObjAddr: 0x3380, symBinAddr: 0x100006384, symSize: 0x34 }
  - { offsetInCU: 0xC4BA, offset: 0xC4BA, size: 0x8, addend: 0x0, symName: __ZNKSt3__18ios_base5flagsB8ue170006Ev, symObjAddr: 0x33B4, symBinAddr: 0x1000063B8, symSize: 0x18 }
  - { offsetInCU: 0xC4E0, offset: 0xC4E0, size: 0x8, addend: 0x0, symName: __ZNKSt3__19basic_iosIcNS_11char_traitsIcEEE4fillB8ue170006Ev, symObjAddr: 0x33CC, symBinAddr: 0x1000063D0, symSize: 0x64 }
  - { offsetInCU: 0xC507, offset: 0xC507, size: 0x8, addend: 0x0, symName: __ZNKSt3__119ostreambuf_iteratorIcNS_11char_traitsIcEEE6failedB8ue170006Ev, symObjAddr: 0x3430, symBinAddr: 0x100006434, symSize: 0x24 }
  - { offsetInCU: 0xC52C, offset: 0xC52C, size: 0x8, addend: 0x0, symName: __ZNSt3__19basic_iosIcNS_11char_traitsIcEEE8setstateB8ue170006Ej, symObjAddr: 0x3454, symBinAddr: 0x100006458, symSize: 0x2C }
  - { offsetInCU: 0xC560, offset: 0xC560, size: 0x8, addend: 0x0, symName: __ZNKSt3__18ios_base5widthB8ue170006Ev, symObjAddr: 0x3480, symBinAddr: 0x100006484, symSize: 0x18 }
  - { offsetInCU: 0xC587, offset: 0xC587, size: 0x8, addend: 0x0, symName: __ZNSt3__115basic_streambufIcNS_11char_traitsIcEEE5sputnB8ue170006EPKcl, symObjAddr: 0x3498, symBinAddr: 0x10000649C, symSize: 0x3C }
  - { offsetInCU: 0xC5C8, offset: 0xC5C8, size: 0x8, addend: 0x0, symName: __ZNSt3__112basic_stringIcNS_11char_traitsIcEENS_9allocatorIcEEEC1B8ue170006Emc, symObjAddr: 0x34D4, symBinAddr: 0x1000064D8, symSize: 0x3C }
  - { offsetInCU: 0xC60F, offset: 0xC60F, size: 0x8, addend: 0x0, symName: __ZNSt3__18ios_base5widthB8ue170006El, symObjAddr: 0x3510, symBinAddr: 0x100006514, symSize: 0x2C }
  - { offsetInCU: 0xC654, offset: 0xC654, size: 0x8, addend: 0x0, symName: __ZNSt3__112basic_stringIcNS_11char_traitsIcEENS_9allocatorIcEEEC2B8ue170006Emc, symObjAddr: 0x353C, symBinAddr: 0x100006540, symSize: 0x4C }
  - { offsetInCU: 0xC69B, offset: 0xC69B, size: 0x8, addend: 0x0, symName: __ZNSt3__117__compressed_pairINS_12basic_stringIcNS_11char_traitsIcEENS_9allocatorIcEEE5__repES5_EC1B8ue170006INS_18__default_init_tagESA_EEOT_OT0_, symObjAddr: 0x3588, symBinAddr: 0x10000658C, symSize: 0x3C }
  - { offsetInCU: 0xC6F2, offset: 0xC6F2, size: 0x8, addend: 0x0, symName: __ZNSt3__117__compressed_pairINS_12basic_stringIcNS_11char_traitsIcEENS_9allocatorIcEEE5__repES5_EC2B8ue170006INS_18__default_init_tagESA_EEOT_OT0_, symObjAddr: 0x35C4, symBinAddr: 0x1000065C8, symSize: 0x3C }
  - { offsetInCU: 0xC749, offset: 0xC749, size: 0x8, addend: 0x0, symName: __ZNSt3__122__compressed_pair_elemINS_12basic_stringIcNS_11char_traitsIcEENS_9allocatorIcEEE5__repELi0ELb0EEC2B8ue170006ENS_18__default_init_tagE, symObjAddr: 0x3600, symBinAddr: 0x100006604, symSize: 0x14 }
  - { offsetInCU: 0xC77D, offset: 0xC77D, size: 0x8, addend: 0x0, symName: __ZNSt3__122__compressed_pair_elemINS_9allocatorIcEELi1ELb1EEC2B8ue170006ENS_18__default_init_tagE, symObjAddr: 0x3614, symBinAddr: 0x100006618, symSize: 0x2C }
  - { offsetInCU: 0xC7B1, offset: 0xC7B1, size: 0x8, addend: 0x0, symName: __ZNSt3__19allocatorIcEC2B8ue170006Ev, symObjAddr: 0x3640, symBinAddr: 0x100006644, symSize: 0x2C }
  - { offsetInCU: 0xC7DA, offset: 0xC7DA, size: 0x8, addend: 0x0, symName: __ZNSt3__116__non_trivial_ifILb1ENS_9allocatorIcEEEC2B8ue170006Ev, symObjAddr: 0x366C, symBinAddr: 0x100006670, symSize: 0x14 }
  - { offsetInCU: 0xC803, offset: 0xC803, size: 0x8, addend: 0x0, symName: __ZNSt3__119ostreambuf_iteratorIcNS_11char_traitsIcEEEC2B8ue170006ERNS_13basic_ostreamIcS2_EE, symObjAddr: 0x3680, symBinAddr: 0x100006684, symSize: 0x68 }
  - { offsetInCU: 0xC839, offset: 0xC839, size: 0x8, addend: 0x0, symName: __ZNKSt3__19basic_iosIcNS_11char_traitsIcEEE5rdbufB8ue170006Ev, symObjAddr: 0x36E8, symBinAddr: 0x1000066EC, symSize: 0x24 }
  - { offsetInCU: 0xC860, offset: 0xC860, size: 0x8, addend: 0x0, symName: __ZNKSt3__18ios_base5rdbufB8ue170006Ev, symObjAddr: 0x370C, symBinAddr: 0x100006710, symSize: 0x18 }
  - { offsetInCU: 0xC885, offset: 0xC885, size: 0x8, addend: 0x0, symName: __ZNSt3__111char_traitsIcE11eq_int_typeB8ue170006Eii, symObjAddr: 0x3724, symBinAddr: 0x100006728, symSize: 0x28 }
  - { offsetInCU: 0xC8B8, offset: 0xC8B8, size: 0x8, addend: 0x0, symName: __ZNSt3__111char_traitsIcE3eofB8ue170006Ev, symObjAddr: 0x374C, symBinAddr: 0x100006750, symSize: 0x8 }
  - { offsetInCU: 0xC8CB, offset: 0xC8CB, size: 0x8, addend: 0x0, symName: __ZNSt3__18ios_base8setstateB8ue170006Ej, symObjAddr: 0x3754, symBinAddr: 0x100006758, symSize: 0x34 }
  - { offsetInCU: 0xC901, offset: 0xC901, size: 0x8, addend: 0x0, symName: __ZNKSt3__112basic_stringIcNS_11char_traitsIcEENS_9allocatorIcEEE13__get_pointerB8ue170006Ev, symObjAddr: 0x379C, symBinAddr: 0x1000067A0, symSize: 0x54 }
  - { offsetInCU: 0xC926, offset: 0xC926, size: 0x8, addend: 0x0, symName: __ZNKSt3__112basic_stringIcNS_11char_traitsIcEENS_9allocatorIcEEE9__is_longB8ue170006Ev, symObjAddr: 0x37F0, symBinAddr: 0x1000067F4, symSize: 0x74 }
  - { offsetInCU: 0xC94B, offset: 0xC94B, size: 0x8, addend: 0x0, symName: __ZNKSt3__112basic_stringIcNS_11char_traitsIcEENS_9allocatorIcEEE18__get_long_pointerB8ue170006Ev, symObjAddr: 0x3864, symBinAddr: 0x100006868, symSize: 0x28 }
  - { offsetInCU: 0xC970, offset: 0xC970, size: 0x8, addend: 0x0, symName: __ZNKSt3__112basic_stringIcNS_11char_traitsIcEENS_9allocatorIcEEE19__get_short_pointerB8ue170006Ev, symObjAddr: 0x388C, symBinAddr: 0x100006890, symSize: 0x28 }
  - { offsetInCU: 0xC995, offset: 0xC995, size: 0x8, addend: 0x0, symName: __ZNKSt3__117__compressed_pairINS_12basic_stringIcNS_11char_traitsIcEENS_9allocatorIcEEE5__repES5_E5firstB8ue170006Ev, symObjAddr: 0x38B4, symBinAddr: 0x1000068B8, symSize: 0x24 }
  - { offsetInCU: 0xC9BA, offset: 0xC9BA, size: 0x8, addend: 0x0, symName: __ZNKSt3__122__compressed_pair_elemINS_12basic_stringIcNS_11char_traitsIcEENS_9allocatorIcEEE5__repELi0ELb0EE5__getB8ue170006Ev, symObjAddr: 0x38D8, symBinAddr: 0x1000068DC, symSize: 0x14 }
  - { offsetInCU: 0xC9DF, offset: 0xC9DF, size: 0x8, addend: 0x0, symName: __ZNSt3__114pointer_traitsIPKcE10pointer_toB8ue170006ERS1_, symObjAddr: 0x38EC, symBinAddr: 0x1000068F0, symSize: 0x14 }
  - { offsetInCU: 0xCA02, offset: 0xCA02, size: 0x8, addend: 0x0, symName: __ZNKSt3__112basic_stringIcNS_11char_traitsIcEENS_9allocatorIcEEE15__get_long_sizeB8ue170006Ev, symObjAddr: 0x3900, symBinAddr: 0x100006904, symSize: 0x28 }
  - { offsetInCU: 0xCA27, offset: 0xCA27, size: 0x8, addend: 0x0, symName: __ZNKSt3__112basic_stringIcNS_11char_traitsIcEENS_9allocatorIcEEE16__get_short_sizeB8ue170006Ev, symObjAddr: 0x3928, symBinAddr: 0x10000692C, symSize: 0x34 }
  - { offsetInCU: 0xCA4C, offset: 0xCA4C, size: 0x8, addend: 0x0, symName: __ZN4BankD2Ev, symObjAddr: 0x395C, symBinAddr: 0x100006960, symSize: 0x2C }
  - { offsetInCU: 0xCA77, offset: 0xCA77, size: 0x8, addend: 0x0, symName: __ZNSt3__16vectorI7AccountNS_9allocatorIS1_EEED1B8ue170006Ev, symObjAddr: 0x3988, symBinAddr: 0x10000698C, symSize: 0x2C }
  - { offsetInCU: 0xCAA0, offset: 0xCAA0, size: 0x8, addend: 0x0, symName: __ZNSt3__16vectorI7AccountNS_9allocatorIS1_EEED2B8ue170006Ev, symObjAddr: 0x39B4, symBinAddr: 0x1000069B8, symSize: 0x3C }
  - { offsetInCU: 0xCAC9, offset: 0xCAC9, size: 0x8, addend: 0x0, symName: __ZNSt3__16vectorI7AccountNS_9allocatorIS1_EEE16__destroy_vectorC1B8ue170006ERS4_, symObjAddr: 0x39F0, symBinAddr: 0x1000069F4, symSize: 0x34 }
  - { offsetInCU: 0xCB01, offset: 0xCB01, size: 0x8, addend: 0x0, symName: __ZNSt3__16vectorI7AccountNS_9allocatorIS1_EEE16__destroy_vectorclB8ue170006Ev, symObjAddr: 0x3A24, symBinAddr: 0x100006A28, symSize: 0x90 }
  - { offsetInCU: 0xCB26, offset: 0xCB26, size: 0x8, addend: 0x0, symName: __ZNSt3__16vectorI7AccountNS_9allocatorIS1_EEE16__destroy_vectorC2B8ue170006ERS4_, symObjAddr: 0x3AB4, symBinAddr: 0x100006AB8, symSize: 0x20 }
  - { offsetInCU: 0xCB5E, offset: 0xCB5E, size: 0x8, addend: 0x0, symName: __ZNSt3__16vectorI7AccountNS_9allocatorIS1_EEE7__clearB8ue170006Ev, symObjAddr: 0x3AD4, symBinAddr: 0x100006AD8, symSize: 0x28 }
  - { offsetInCU: 0xCB83, offset: 0xCB83, size: 0x8, addend: 0x0, symName: __ZNSt3__16vectorI7AccountNS_9allocatorIS1_EEE22__base_destruct_at_endB8ue170006EPS1_, symObjAddr: 0x3AFC, symBinAddr: 0x100006B00, symSize: 0xA0 }
  - { offsetInCU: 0xCBC6, offset: 0xCBC6, size: 0x8, addend: 0x0, symName: __ZNSt3__112basic_stringIcNS_11char_traitsIcEENS_9allocatorIcEEEC2B8ue170006Ev, symObjAddr: 0x3B9C, symBinAddr: 0x100006BA0, symSize: 0x3C }
  - { offsetInCU: 0xCBEF, offset: 0xCBEF, size: 0x8, addend: 0x0, symName: __ZNSt3__112basic_stringIcNS_11char_traitsIcEENS_9allocatorIcEEE14__default_initB8ue170006Ev, symObjAddr: 0x3BD8, symBinAddr: 0x100006BDC, symSize: 0xB0 }
  - { offsetInCU: 0xCC41, offset: 0xCC41, size: 0x8, addend: 0x0, symName: __ZNSt3__117__compressed_pairINS_12basic_stringIcNS_11char_traitsIcEENS_9allocatorIcEEE5__repES5_E5firstB8ue170006Ev, symObjAddr: 0x3C88, symBinAddr: 0x100006C8C, symSize: 0x24 }
  - { offsetInCU: 0xCC66, offset: 0xCC66, size: 0x8, addend: 0x0, symName: __ZNSt3__112basic_stringIcNS_11char_traitsIcEENS_9allocatorIcEEE11__recommendB8ue170006Em, symObjAddr: 0x3CAC, symBinAddr: 0x100006CB0, symSize: 0x9C }
  - { offsetInCU: 0xCC99, offset: 0xCC99, size: 0x8, addend: 0x0, symName: __ZNSt3__116allocator_traitsINS_9allocatorIcEEE8allocateB8ue170006ERS2_m, symObjAddr: 0x3D48, symBinAddr: 0x100006D4C, symSize: 0x2C }
  - { offsetInCU: 0xCCCC, offset: 0xCCCC, size: 0x8, addend: 0x0, symName: __ZNSt3__112basic_stringIcNS_11char_traitsIcEENS_9allocatorIcEEE7__allocB8ue170006Ev, symObjAddr: 0x3D74, symBinAddr: 0x100006D78, symSize: 0x24 }
  - { offsetInCU: 0xCCF1, offset: 0xCCF1, size: 0x8, addend: 0x0, symName: __ZNSt3__112basic_stringIcNS_11char_traitsIcEENS_9allocatorIcEEE16__begin_lifetimeB8ue170006EPcm, symObjAddr: 0x3D98, symBinAddr: 0x100006D9C, symSize: 0x14 }
  - { offsetInCU: 0xCD24, offset: 0xCD24, size: 0x8, addend: 0x0, symName: __ZNSt3__112basic_stringIcNS_11char_traitsIcEENS_9allocatorIcEEE18__set_long_pointerB8ue170006EPc, symObjAddr: 0x3DAC, symBinAddr: 0x100006DB0, symSize: 0x38 }
  - { offsetInCU: 0xCD58, offset: 0xCD58, size: 0x8, addend: 0x0, symName: __ZNSt3__112basic_stringIcNS_11char_traitsIcEENS_9allocatorIcEEE14__set_long_capB8ue170006Em, symObjAddr: 0x3DE4, symBinAddr: 0x100006DE8, symSize: 0x70 }
  - { offsetInCU: 0xCD8C, offset: 0xCD8C, size: 0x8, addend: 0x0, symName: __ZNSt3__112basic_stringIcNS_11char_traitsIcEENS_9allocatorIcEEE15__set_long_sizeB8ue170006Em, symObjAddr: 0x3E54, symBinAddr: 0x100006E58, symSize: 0x38 }
  - { offsetInCU: 0xCDC0, offset: 0xCDC0, size: 0x8, addend: 0x0, symName: __ZNSt3__122__compressed_pair_elemINS_12basic_stringIcNS_11char_traitsIcEENS_9allocatorIcEEE5__repELi0ELb0EE5__getB8ue170006Ev, symObjAddr: 0x3E8C, symBinAddr: 0x100006E90, symSize: 0x14 }
  - { offsetInCU: 0xCDE5, offset: 0xCDE5, size: 0x8, addend: 0x0, symName: __ZNSt3__112basic_stringIcNS_11char_traitsIcEENS_9allocatorIcEEE10__align_itB8ue170006ILm16EEEmm, symObjAddr: 0x3EA0, symBinAddr: 0x100006EA4, symSize: 0x1C }
  - { offsetInCU: 0xCE13, offset: 0xCE13, size: 0x8, addend: 0x0, symName: __ZNSt3__19allocatorIcE8allocateB8ue170006Em, symObjAddr: 0x3EBC, symBinAddr: 0x100006EC0, symSize: 0x84 }
  - { offsetInCU: 0xCE50, offset: 0xCE50, size: 0x8, addend: 0x0, symName: __ZNSt3__116allocator_traitsINS_9allocatorIcEEE8max_sizeB8ue170006IS2_vEEmRKS2_, symObjAddr: 0x3F40, symBinAddr: 0x100006F44, symSize: 0x24 }
  - { offsetInCU: 0xCE7E, offset: 0xCE7E, size: 0x8, addend: 0x0, symName: __ZNKSt3__19allocatorIcE8max_sizeB8ue170006Ev, symObjAddr: 0x3F64, symBinAddr: 0x100006F68, symSize: 0x14 }
  - { offsetInCU: 0xCEA3, offset: 0xCEA3, size: 0x8, addend: 0x0, symName: __ZNSt3__117__compressed_pairINS_12basic_stringIcNS_11char_traitsIcEENS_9allocatorIcEEE5__repES5_E6secondB8ue170006Ev, symObjAddr: 0x3F78, symBinAddr: 0x100006F7C, symSize: 0x24 }
  - { offsetInCU: 0xCEC8, offset: 0xCEC8, size: 0x8, addend: 0x0, symName: __ZNSt3__122__compressed_pair_elemINS_9allocatorIcEELi1ELb1EE5__getB8ue170006Ev, symObjAddr: 0x3F9C, symBinAddr: 0x100006FA0, symSize: 0x14 }
  - { offsetInCU: 0xCEED, offset: 0xCEED, size: 0x8, addend: 0x0, symName: __ZNSt3__111char_traitsIcE6lengthB8ue170006EPKc, symObjAddr: 0x3FB0, symBinAddr: 0x100006FB4, symSize: 0x48 }
  - { offsetInCU: 0xCFA2, offset: 0xCFA2, size: 0x8, addend: 0x0, symName: __ZNKSt3__113basic_istreamIcNS_11char_traitsIcEEE6sentrycvbB8ue170006Ev, symObjAddr: 0x401C, symBinAddr: 0x100007020, symSize: 0x1C }
  - { offsetInCU: 0xCFC6, offset: 0xCFC6, size: 0x8, addend: 0x0, symName: __ZNSt3__112basic_stringIcNS_11char_traitsIcEENS_9allocatorIcEEE5clearB8ue170006Ev, symObjAddr: 0x4038, symBinAddr: 0x10000703C, symSize: 0x78 }
  - { offsetInCU: 0xCFED, offset: 0xCFED, size: 0x8, addend: 0x0, symName: __ZNKSt3__112basic_stringIcNS_11char_traitsIcEENS_9allocatorIcEEE8max_sizeB8ue170006Ev, symObjAddr: 0x40B0, symBinAddr: 0x1000070B4, symSize: 0xAC }
  - { offsetInCU: 0xD03F, offset: 0xD03F, size: 0x8, addend: 0x0, symName: __ZNSt3__115basic_streambufIcNS_11char_traitsIcEEE5sgetcB8ue170006Ev, symObjAddr: 0x415C, symBinAddr: 0x100007160, symSize: 0x70 }
  - { offsetInCU: 0xD064, offset: 0xD064, size: 0x8, addend: 0x0, symName: __ZNSt3__111char_traitsIcE12to_char_typeB8ue170006Ei, symObjAddr: 0x41CC, symBinAddr: 0x1000071D0, symSize: 0x18 }
  - { offsetInCU: 0xD087, offset: 0xD087, size: 0x8, addend: 0x0, symName: __ZNKSt3__15ctypeIcE2isB8ue170006Ejc, symObjAddr: 0x41E4, symBinAddr: 0x1000071E8, symSize: 0x7C }
  - { offsetInCU: 0xD0CA, offset: 0xD0CA, size: 0x8, addend: 0x0, symName: __ZNSt3__115basic_streambufIcNS_11char_traitsIcEEE6sbumpcB8ue170006Ev, symObjAddr: 0x4260, symBinAddr: 0x100007264, symSize: 0x78 }
  - { offsetInCU: 0xD0EF, offset: 0xD0EF, size: 0x8, addend: 0x0, symName: __ZNSt3__18ios_base18__setstate_nothrowB8ue170006Ej, symObjAddr: 0x42D8, symBinAddr: 0x1000072DC, symSize: 0x64 }
  - { offsetInCU: 0xD123, offset: 0xD123, size: 0x8, addend: 0x0, symName: __ZNKSt3__19basic_iosIcNS_11char_traitsIcEEE10exceptionsB8ue170006Ev, symObjAddr: 0x433C, symBinAddr: 0x100007340, symSize: 0x24 }
  - { offsetInCU: 0xD148, offset: 0xD148, size: 0x8, addend: 0x0, symName: __ZNSt3__111char_traitsIcE6assignB8ue170006ERcRKc, symObjAddr: 0x4360, symBinAddr: 0x100007364, symSize: 0x24 }
  - { offsetInCU: 0xD179, offset: 0xD179, size: 0x8, addend: 0x0, symName: __ZNSt3__112basic_stringIcNS_11char_traitsIcEENS_9allocatorIcEEE18__get_long_pointerB8ue170006Ev, symObjAddr: 0x4384, symBinAddr: 0x100007388, symSize: 0x28 }
  - { offsetInCU: 0xD19E, offset: 0xD19E, size: 0x8, addend: 0x0, symName: __ZNSt3__112basic_stringIcNS_11char_traitsIcEENS_9allocatorIcEEE19__get_short_pointerB8ue170006Ev, symObjAddr: 0x43AC, symBinAddr: 0x1000073B0, symSize: 0x28 }
  - { offsetInCU: 0xD1C3, offset: 0xD1C3, size: 0x8, addend: 0x0, symName: __ZNSt3__112basic_stringIcNS_11char_traitsIcEENS_9allocatorIcEEE16__set_short_sizeB8ue170006Em, symObjAddr: 0x43D4, symBinAddr: 0x1000073D8, symSize: 0x78 }
  - { offsetInCU: 0xD1F7, offset: 0xD1F7, size: 0x8, addend: 0x0, symName: __ZNSt3__114pointer_traitsIPcE10pointer_toB8ue170006ERc, symObjAddr: 0x444C, symBinAddr: 0x100007450, symSize: 0x14 }
  - { offsetInCU: 0xD21A, offset: 0xD21A, size: 0x8, addend: 0x0, symName: __ZNKSt3__112basic_stringIcNS_11char_traitsIcEENS_9allocatorIcEEE7__allocB8ue170006Ev, symObjAddr: 0x4460, symBinAddr: 0x100007464, symSize: 0x24 }
  - { offsetInCU: 0xD23F, offset: 0xD23F, size: 0x8, addend: 0x0, symName: __ZNSt3__114numeric_limitsImE3maxB8ue170006Ev, symObjAddr: 0x4484, symBinAddr: 0x100007488, symSize: 0x14 }
  - { offsetInCU: 0xD253, offset: 0xD253, size: 0x8, addend: 0x0, symName: __ZNKSt3__117__compressed_pairINS_12basic_stringIcNS_11char_traitsIcEENS_9allocatorIcEEE5__repES5_E6secondB8ue170006Ev, symObjAddr: 0x4498, symBinAddr: 0x10000749C, symSize: 0x24 }
  - { offsetInCU: 0xD278, offset: 0xD278, size: 0x8, addend: 0x0, symName: __ZNKSt3__122__compressed_pair_elemINS_9allocatorIcEELi1ELb1EE5__getB8ue170006Ev, symObjAddr: 0x44BC, symBinAddr: 0x1000074C0, symSize: 0x14 }
  - { offsetInCU: 0xD29D, offset: 0xD29D, size: 0x8, addend: 0x0, symName: __ZNSt3__123__libcpp_numeric_limitsImLb1EE3maxB8ue170006Ev, symObjAddr: 0x44D0, symBinAddr: 0x1000074D4, symSize: 0x8 }
  - { offsetInCU: 0xD2B1, offset: 0xD2B1, size: 0x8, addend: 0x0, symName: __ZNSt3__111char_traitsIcE11to_int_typeB8ue170006Ec, symObjAddr: 0x44D8, symBinAddr: 0x1000074DC, symSize: 0x14 }
  - { offsetInCU: 0xD2D4, offset: 0xD2D4, size: 0x8, addend: 0x0, symName: __Z7isasciii, symObjAddr: 0x44EC, symBinAddr: 0x1000074F0, symSize: 0x24 }
  - { offsetInCU: 0xD301, offset: 0xD301, size: 0x8, addend: 0x0, symName: __ZNKSt3__18ios_base10exceptionsB8ue170006Ev, symObjAddr: 0x4510, symBinAddr: 0x100007514, symSize: 0x18 }
...
